target datalayout = "e-m:e-p270:32:32-p271:32:32-p272:64:64-i64:64-i128:128-f80:128-n8:16:32:64-S128"
target triple = "x86_64-pc-linux-gnu"

%struct.bf_key_st = type { [18 x i32], [1024 x i32] }

@cbc_key = internal global [16 x i8] c"\01#Eg\89\AB\CD\EF\F0\E1\D2\C3\B4\A5\96\87", align 16
@cbc_iv = internal global [8 x i8] c"\FE\DC\BA\98vT2\10", align 1
@cbc_data = internal global [40 x i8] c"7654321 Now is the time for \00\00\00\00\00\00\00\00\00\00\00\00", align 16
@cbc_ok = internal global [32 x i8] c"kw\B4\D60\06\DE\E6\05\B1V\E2t\03\97\93X\DE\B9\E7\15F\16\D9Y\F1e+\D5\FF\92\CC", align 16
@.str.40 = private unnamed_addr constant [25 x i8] c"../openssl/test/bftest.c\00", align 1
@.str.48 = private unnamed_addr constant [8 x i8] c"cbc_out\00", align 1
@.str.49 = private unnamed_addr constant [7 x i8] c"cbc_ok\00", align 1
@.str.50 = private unnamed_addr constant [7 x i8] c"cbc_in\00", align 1
@.str.51 = private unnamed_addr constant [9 x i8] c"cbc_data\00", align 1

; Function Attrs: nounwind uwtable
define internal i32 @test_bf_cbc() #0 {
  %1 = alloca [40 x i8], align 16
  %2 = alloca [40 x i8], align 16
  %3 = alloca [8 x i8], align 1
  %4 = alloca i32, align 4
  %5 = alloca %struct.bf_key_st, align 4
  %6 = alloca i32, align 4
  call void @llvm.lifetime.start.p0(i64 40, ptr %1) #6
  call void @llvm.lifetime.start.p0(i64 40, ptr %2) #6
  call void @llvm.lifetime.start.p0(i64 8, ptr %3) #6
  call void @llvm.lifetime.start.p0(i64 4, ptr %4) #6
  store i32 1, ptr %4, align 4, !tbaa !4
  call void @llvm.lifetime.start.p0(i64 4168, ptr %5) #6
  call void @llvm.lifetime.start.p0(i64 4, ptr %6) #6
  %7 = call i64 @strlen(ptr noundef @cbc_data) #7
  %8 = add i64 %7, 1
  %9 = trunc i64 %8 to i32
  store i32 %9, ptr %6, align 4, !tbaa !4
  call void @BF_set_key(ptr noundef %5, i32 noundef 16, ptr noundef @cbc_key)
  %10 = getelementptr inbounds [40 x i8], ptr %1, i64 0, i64 0
  call void @llvm.memset.p0.i64(ptr align 16 %10, i8 0, i64 40, i1 false)
  %11 = getelementptr inbounds [40 x i8], ptr %2, i64 0, i64 0
  call void @llvm.memset.p0.i64(ptr align 16 %11, i8 0, i64 40, i1 false)
  %12 = getelementptr inbounds [8 x i8], ptr %3, i64 0, i64 0
  call void @llvm.memcpy.p0.p0.i64(ptr align 1 %12, ptr align 1 @cbc_iv, i64 8, i1 false)
  %13 = getelementptr inbounds [40 x i8], ptr %2, i64 0, i64 0
  %14 = load i32, ptr %6, align 4, !tbaa !4
  %15 = zext i32 %14 to i64
  %16 = getelementptr inbounds [8 x i8], ptr %3, i64 0, i64 0
  call void @BF_cbc_encrypt(ptr noundef @cbc_data, ptr noundef %13, i64 noundef %15, ptr noundef %5, ptr noundef %16, i32 noundef 1)
  %17 = getelementptr inbounds [40 x i8], ptr %2, i64 0, i64 0
  %18 = call i32 @test_mem_eq(ptr noundef @.str.40, i32 noundef 365, ptr noundef @.str.48, ptr noundef @.str.49, ptr noundef %17, i64 noundef 32, ptr noundef @cbc_ok, i64 noundef 32)
  %19 = icmp ne i32 %18, 0
  br i1 %19, label %21, label %20

20:                                               ; preds = %0
  store i32 0, ptr %4, align 4, !tbaa !4
  br label %21

21:                                               ; preds = %20, %0
  %22 = getelementptr inbounds [8 x i8], ptr %3, i64 0, i64 0
  call void @llvm.memcpy.p0.p0.i64(ptr align 1 %22, ptr align 1 @cbc_iv, i64 8, i1 false)
  %23 = getelementptr inbounds [40 x i8], ptr %2, i64 0, i64 0
  %24 = getelementptr inbounds [40 x i8], ptr %1, i64 0, i64 0
  %25 = load i32, ptr %6, align 4, !tbaa !4
  %26 = zext i32 %25 to i64
  %27 = getelementptr inbounds [8 x i8], ptr %3, i64 0, i64 0
  call void @BF_cbc_encrypt(ptr noundef %23, ptr noundef %24, i64 noundef %26, ptr noundef %5, ptr noundef %27, i32 noundef 0)
  %28 = getelementptr inbounds [40 x i8], ptr %1, i64 0, i64 0
  %29 = load i32, ptr %6, align 4, !tbaa !4
  %30 = zext i32 %29 to i64
  %31 = call i64 @strlen(ptr noundef @cbc_data) #7
  %32 = add i64 %31, 1
  %33 = call i32 @test_mem_eq(ptr noundef @.str.40, i32 noundef 370, ptr noundef @.str.50, ptr noundef @.str.51, ptr noundef %28, i64 noundef %30, ptr noundef @cbc_data, i64 noundef %32)
  %34 = icmp ne i32 %33, 0
  br i1 %34, label %36, label %35

35:                                               ; preds = %21
  store i32 0, ptr %4, align 4, !tbaa !4
  br label %36

36:                                               ; preds = %35, %21
  %37 = load i32, ptr %4, align 4, !tbaa !4
  call void @llvm.lifetime.end.p0(i64 4, ptr %6) #6
  call void @llvm.lifetime.end.p0(i64 4168, ptr %5) #6
  call void @llvm.lifetime.end.p0(i64 4, ptr %4) #6
  call void @llvm.lifetime.end.p0(i64 8, ptr %3) #6
  call void @llvm.lifetime.end.p0(i64 40, ptr %2) #6
  call void @llvm.lifetime.end.p0(i64 40, ptr %1) #6
  ret i32 %37
}