; Function Attrs: nounwind uwtable
define internal range(i32 0, 2) i32 @test_bf_cbc() #1 {
  %1 = alloca [40 x i8], align 16
  %2 = alloca [40 x i8], align 16
  %3 = alloca [8 x i8], align 8
  %4 = alloca %struct.bf_key_st, align 4
  call void @llvm.lifetime.start.p0(i64 40, ptr nonnull %1) #8
  call void @llvm.lifetime.start.p0(i64 40, ptr nonnull %2) #8
  call void @llvm.lifetime.start.p0(i64 8, ptr nonnull %3) #8
  call void @llvm.lifetime.start.p0(i64 4168, ptr nonnull %4) #8
  %5 = tail call i64 @strlen(ptr noundef nonnull dereferenceable(1) @cbc_data) #9
  %6 = add i64 %5, 1
  call void @BF_set_key(ptr noundef nonnull %4, i32 noundef 16, ptr noundef nonnull @cbc_key) #8
  call void @llvm.memset.p0.i64(ptr noundef nonnull align 16 dereferenceable(40) %1, i8 0, i64 40, i1 false)
  call void @llvm.memset.p0.i64(ptr noundef nonnull align 16 dereferenceable(40) %2, i8 0, i64 40, i1 false)
  store i64 1167088121787636990, ptr %3, align 8
  %7 = and i64 %6, 4294967295
  call void @BF_cbc_encrypt(ptr noundef nonnull @cbc_data, ptr noundef nonnull %2, i64 noundef %7, ptr noundef nonnull %4, ptr noundef nonnull %3, i32 noundef 1) #8
  %8 = call i32 @test_mem_eq(ptr noundef nonnull @.str.40, i32 noundef 365, ptr noundef nonnull @.str.48, ptr noundef nonnull @.str.49, ptr noundef nonnull %2, i64 noundef 32, ptr noundef nonnull @cbc_ok, i64 noundef 32) #8
  %.not = icmp ne i32 %8, 0
  store i64 1167088121787636990, ptr %3, align 8
  call void @BF_cbc_encrypt(ptr noundef nonnull %2, ptr noundef nonnull %1, i64 noundef %7, ptr noundef nonnull %4, ptr noundef nonnull %3, i32 noundef 0) #8
  %9 = call i64 @strlen(ptr noundef nonnull dereferenceable(1) @cbc_data) #9
  %10 = add i64 %9, 1
  %11 = call i32 @test_mem_eq(ptr noundef nonnull @.str.40, i32 noundef 370, ptr noundef nonnull @.str.50, ptr noundef nonnull @.str.51, ptr noundef nonnull %1, i64 noundef %7, ptr noundef nonnull @cbc_data, i64 noundef %10) #8
  %.not4 = icmp ne i32 %11, 0
  %narrow = select i1 %.not4, i1 %.not, i1 false
  %.1 = zext i1 %narrow to i32
  call void @llvm.lifetime.end.p0(i64 4168, ptr nonnull %4) #8
  call void @llvm.lifetime.end.p0(i64 8, ptr nonnull %3) #8
  call void @llvm.lifetime.end.p0(i64 40, ptr nonnull %2) #8
  call void @llvm.lifetime.end.p0(i64 40, ptr nonnull %1) #8
  ret i32 %.1
}